   1              		.cpu arm7tdmi
   2              		.fpu softvfp
   3              		.eabi_attribute 20, 1
   4              		.eabi_attribute 21, 1
   5              		.eabi_attribute 23, 3
   6              		.eabi_attribute 24, 1
   7              		.eabi_attribute 25, 1
   8              		.eabi_attribute 26, 1
   9              		.eabi_attribute 30, 6
  10              		.eabi_attribute 18, 4
  11              		.file	"segs.c"
  21              	.Ltext0:
  22              		.file 1 "../src/segs.c"
 1906              		.align	2
 1909              	hex2segs:
 1910 0000 12       		.byte	18
 1911 0001 00000000 		.space	15
 1911      00000000 
 1911      00000000 
 1911      000000
 1912              		.bss
 1913              	state:
 1914 0000 00       		.space	1
 1915              		.text
 1916              		.align	2
 1917              		.global	segs_init
 1919              	segs_init:
 1920              	.LFB0:
   1:../src/segs.c **** 
   2:../src/segs.c **** #include <s3c44b0x.h>
   3:../src/segs.c **** #include <s3cev40.h>
   4:../src/segs.c **** #include <segs.h>
   5:../src/segs.c **** 
   6:../src/segs.c **** static const uint8 hex2segs[16] = {0x12 };
   7:../src/segs.c **** 
   8:../src/segs.c **** static uint8 state;
   9:../src/segs.c ****         
  10:../src/segs.c **** void segs_init( void )
  11:../src/segs.c **** {
 1921              		.loc 1 11 0
 1922              		.cfi_startproc
 1923              		@ Function supports interworking.
 1924              		@ args = 0, pretend = 0, frame = 0
 1925              		@ frame_needed = 1, uses_anonymous_args = 0
 1926 0000 0DC0A0E1 		mov	ip, sp
 1927              	.LCFI0:
 1928              		.cfi_def_cfa_register 12
 1929 0004 00D82DE9 		stmfd	sp!, {fp, ip, lr, pc}
 1930 0008 04B04CE2 		sub	fp, ip, #4
 1931              		.cfi_offset 14, -8
 1932              		.cfi_offset 13, -12
 1933              		.cfi_offset 11, -16
 1934              	.LCFI1:
 1935              		.cfi_def_cfa 11, 4
  12:../src/segs.c ****     segs_off();
 1936              		.loc 1 12 0
 1937 000c FEFFFFEB 		bl	segs_off
  13:../src/segs.c **** }                                  
 1938              		.loc 1 13 0
 1939 0010 0CD04BE2 		sub	sp, fp, #12
 1940 0014 00689DE8 		ldmfd	sp, {fp, sp, lr}
 1941 0018 1EFF2FE1 		bx	lr
 1942              		.cfi_endproc
 1943              	.LFE0:
 1945              		.align	2
 1946              		.global	segs_off
 1948              	segs_off:
 1949              	.LFB1:
  14:../src/segs.c ****                           
  15:../src/segs.c **** void segs_off( void )
  16:../src/segs.c **** {
 1950              		.loc 1 16 0
 1951              		.cfi_startproc
 1952              		@ Function supports interworking.
 1953              		@ args = 0, pretend = 0, frame = 0
 1954              		@ frame_needed = 1, uses_anonymous_args = 0
 1955 001c 0DC0A0E1 		mov	ip, sp
 1956              	.LCFI2:
 1957              		.cfi_def_cfa_register 12
 1958 0020 00D82DE9 		stmfd	sp!, {fp, ip, lr, pc}
 1959 0024 04B04CE2 		sub	fp, ip, #4
 1960              		.cfi_offset 14, -8
 1961              		.cfi_offset 13, -12
 1962              		.cfi_offset 11, -16
 1963              	.LCFI3:
 1964              		.cfi_def_cfa 11, 4
  17:../src/segs.c ****     state = SEGS_OFF;
 1965              		.loc 1 17 0
 1966 0028 20309FE5 		ldr	r3, .L3
 1967 002c 0020E0E3 		mvn	r2, #0
 1968 0030 0020C3E5 		strb	r2, [r3, #0]
  18:../src/segs.c ****     SEGS = state;
 1969              		.loc 1 18 0
 1970 0034 8537A0E3 		mov	r3, #34865152
 1971 0038 10209FE5 		ldr	r2, .L3
 1972 003c 0020D2E5 		ldrb	r2, [r2, #0]	@ zero_extendqisi2
 1973 0040 0020C3E5 		strb	r2, [r3, #0]
  19:../src/segs.c **** }
 1974              		.loc 1 19 0
 1975 0044 0CD04BE2 		sub	sp, fp, #12
 1976 0048 00689DE8 		ldmfd	sp, {fp, sp, lr}
 1977 004c 1EFF2FE1 		bx	lr
 1978              	.L4:
 1979              		.align	2
 1980              	.L3:
 1981 0050 00000000 		.word	state
 1982              		.cfi_endproc
 1983              	.LFE1:
 1985              		.align	2
 1986              		.global	segs_putchar
 1988              	segs_putchar:
 1989              	.LFB2:
  20:../src/segs.c **** 
  21:../src/segs.c **** void segs_putchar( uint8 n )
  22:../src/segs.c **** {
 1990              		.loc 1 22 0
 1991              		.cfi_startproc
 1992              		@ Function supports interworking.
 1993              		@ args = 0, pretend = 0, frame = 8
 1994              		@ frame_needed = 1, uses_anonymous_args = 0
 1995 0054 0DC0A0E1 		mov	ip, sp
 1996              	.LCFI4:
 1997              		.cfi_def_cfa_register 12
 1998 0058 00D82DE9 		stmfd	sp!, {fp, ip, lr, pc}
 1999 005c 04B04CE2 		sub	fp, ip, #4
 2000              		.cfi_offset 14, -8
 2001              		.cfi_offset 13, -12
 2002              		.cfi_offset 11, -16
 2003              	.LCFI5:
 2004              		.cfi_def_cfa 11, 4
 2005 0060 08D04DE2 		sub	sp, sp, #8
 2006 0064 0030A0E1 		mov	r3, r0
 2007 0068 0D304BE5 		strb	r3, [fp, #-13]
  23:../src/segs.c ****     state = n & 0x0f;
 2008              		.loc 1 23 0
 2009 006c 0D305BE5 		ldrb	r3, [fp, #-13]
 2010 0070 0F3003E2 		and	r3, r3, #15
 2011 0074 FF2003E2 		and	r2, r3, #255
 2012 0078 24309FE5 		ldr	r3, .L6
 2013 007c 0020C3E5 		strb	r2, [r3, #0]
  24:../src/segs.c ****     SEGS = hex2segs[state];
 2014              		.loc 1 24 0
 2015 0080 8537A0E3 		mov	r3, #34865152
 2016 0084 18209FE5 		ldr	r2, .L6
 2017 0088 0020D2E5 		ldrb	r2, [r2, #0]	@ zero_extendqisi2
 2018 008c 14109FE5 		ldr	r1, .L6+4
 2019 0090 0220D1E7 		ldrb	r2, [r1, r2]	@ zero_extendqisi2
 2020 0094 0020C3E5 		strb	r2, [r3, #0]
  25:../src/segs.c **** };
 2021              		.loc 1 25 0
 2022 0098 0CD04BE2 		sub	sp, fp, #12
 2023 009c 00689DE8 		ldmfd	sp, {fp, sp, lr}
 2024 00a0 1EFF2FE1 		bx	lr
 2025              	.L7:
 2026              		.align	2
 2027              	.L6:
 2028 00a4 00000000 		.word	state
 2029 00a8 00000000 		.word	hex2segs
 2030              		.cfi_endproc
 2031              	.LFE2:
 2033              		.align	2
 2034              		.global	segs_status
 2036              	segs_status:
 2037              	.LFB3:
  26:../src/segs.c **** 
  27:../src/segs.c **** uint8 segs_status( void )
  28:../src/segs.c **** {
 2038              		.loc 1 28 0
 2039              		.cfi_startproc
 2040              		@ Function supports interworking.
 2041              		@ args = 0, pretend = 0, frame = 0
 2042              		@ frame_needed = 1, uses_anonymous_args = 0
 2043 00ac 0DC0A0E1 		mov	ip, sp
 2044              	.LCFI6:
 2045              		.cfi_def_cfa_register 12
 2046 00b0 00D82DE9 		stmfd	sp!, {fp, ip, lr, pc}
 2047 00b4 04B04CE2 		sub	fp, ip, #4
 2048              		.cfi_offset 14, -8
 2049              		.cfi_offset 13, -12
 2050              		.cfi_offset 11, -16
 2051              	.LCFI7:
 2052              		.cfi_def_cfa 11, 4
  29:../src/segs.c ****     return state;
 2053              		.loc 1 29 0
 2054 00b8 10309FE5 		ldr	r3, .L9
 2055 00bc 0030D3E5 		ldrb	r3, [r3, #0]	@ zero_extendqisi2
  30:../src/segs.c **** };
 2056              		.loc 1 30 0
 2057 00c0 0300A0E1 		mov	r0, r3
 2058 00c4 0CD04BE2 		sub	sp, fp, #12
 2059 00c8 00689DE8 		ldmfd	sp, {fp, sp, lr}
 2060 00cc 1EFF2FE1 		bx	lr
 2061              	.L10:
 2062              		.align	2
 2063              	.L9:
 2064 00d0 00000000 		.word	state
 2065              		.cfi_endproc
 2066              	.LFE3:
 2068              	.Letext0: